target datalayout = "e-m:e-p270:32:32-p271:32:32-p272:64:64-i64:64-i128:128-f80:128-n8:16:32:64-S128"
target triple = "x86_64-pc-linux-gnu"

%struct.expert_field = type { i32, i32 }

@is_uplink = internal global i32 0, align 4
@ei_gsm_a_dtap_extraneous_data = internal global %struct.expert_field zeroinitializer, align 4
@ei_gsm_a_dtap_missing_mandatory_element = internal global %struct.expert_field zeroinitializer, align 4
@.str.824 = private unnamed_addr constant [1 x i8] zeroinitializer, align 1
@.str.1325 = private unnamed_addr constant [62 x i8] c"Missing Mandatory element %s%s, rest of dissection is suspect\00", align 1

; Function Attrs: null_pointer_is_valid sspstrong uwtable
define internal void @dtap_cc_modify_complete(ptr noundef %0, ptr noundef %1, ptr noundef %2, i32 noundef %3, i32 noundef %4) #1 {
  %6 = alloca ptr, align 8
  %7 = alloca ptr, align 8
  %8 = alloca ptr, align 8
  %9 = alloca i32, align 4
  %10 = alloca i32, align 4
  %11 = alloca i32, align 4
  %12 = alloca i32, align 4
  %13 = alloca i32, align 4
  %14 = alloca i32, align 4
  store ptr %0, ptr %6, align 8
  store ptr %1, ptr %7, align 8
  store ptr %2, ptr %8, align 8
  store i32 %3, ptr %9, align 4
  store i32 %4, ptr %10, align 4
  call void @llvm.lifetime.start.p0(i64 4, ptr %11) #7
  call void @llvm.lifetime.start.p0(i64 4, ptr %12) #7
  call void @llvm.lifetime.start.p0(i64 4, ptr %13) #7
  %15 = load i32, ptr %9, align 4
  store i32 %15, ptr %11, align 4
  %16 = load i32, ptr %10, align 4
  store i32 %16, ptr %13, align 4
  store i32 1, ptr @is_uplink, align 4
  %17 = load i32, ptr %13, align 4
  %18 = icmp sgt i32 %17, 0
  br i1 %18, label %19, label %35

19:                                               ; preds = %5
  %20 = load ptr, ptr %6, align 8
  %21 = load ptr, ptr %7, align 8
  %22 = load ptr, ptr %8, align 8
  %23 = load i32, ptr %11, align 4
  %24 = load i32, ptr %13, align 4
  %25 = call zeroext i16 @elem_lv(ptr noundef %20, ptr noundef %21, ptr noundef %22, i32 noundef 1, i32 noundef 20, i32 noundef %23, i32 noundef %24, ptr noundef null)
  %26 = zext i16 %25 to i32
  store i32 %26, ptr %12, align 4
  %27 = icmp ugt i32 %26, 0
  br i1 %27, label %28, label %35

28:                                               ; preds = %19
  %29 = load i32, ptr %12, align 4
  %30 = load i32, ptr %11, align 4
  %31 = add i32 %30, %29
  store i32 %31, ptr %11, align 4
  %32 = load i32, ptr %12, align 4
  %33 = load i32, ptr %13, align 4
  %34 = sub i32 %33, %32
  store i32 %34, ptr %13, align 4
  br label %42

35:                                               ; preds = %19, %5
  %36 = load ptr, ptr %7, align 8
  %37 = load ptr, ptr %8, align 8
  %38 = load ptr, ptr %6, align 8
  %39 = load i32, ptr %11, align 4
  %40 = call ptr @get_gsm_a_msg_string(i32 noundef 1, i32 noundef 20)
  %41 = call ptr (ptr, ptr, ptr, ptr, i32, i32, ptr, ...) @proto_tree_add_expert_format(ptr noundef %36, ptr noundef %37, ptr noundef @ei_gsm_a_dtap_missing_mandatory_element, ptr noundef %38, i32 noundef %39, i32 noundef 0, ptr noundef @.str.1325, ptr noundef %40, ptr noundef @.str.824)
  br label %42

42:                                               ; preds = %35, %28
  %43 = load i32, ptr %13, align 4
  %44 = icmp sle i32 %43, 0
  br i1 %44, label %45, label %46

45:                                               ; preds = %42
  store i32 1, ptr %14, align 4
  br label %117

46:                                               ; preds = %42
  %47 = load ptr, ptr %6, align 8
  %48 = load ptr, ptr %7, align 8
  %49 = load ptr, ptr %8, align 8
  %50 = load i32, ptr %11, align 4
  %51 = load i32, ptr %13, align 4
  %52 = call zeroext i16 @elem_tlv(ptr noundef %47, ptr noundef %48, ptr noundef %49, i8 noundef zeroext 124, i32 noundef 1, i32 noundef 36, i32 noundef %50, i32 noundef %51, ptr noundef null)
  %53 = zext i16 %52 to i32
  store i32 %53, ptr %12, align 4
  %54 = icmp ugt i32 %53, 0
  br i1 %54, label %55, label %62

55:                                               ; preds = %46
  %56 = load i32, ptr %12, align 4
  %57 = load i32, ptr %11, align 4
  %58 = add i32 %57, %56
  store i32 %58, ptr %11, align 4
  %59 = load i32, ptr %12, align 4
  %60 = load i32, ptr %13, align 4
  %61 = sub i32 %60, %59
  store i32 %61, ptr %13, align 4
  br label %62

62:                                               ; preds = %55, %46
  %63 = load i32, ptr %13, align 4
  %64 = icmp sle i32 %63, 0
  br i1 %64, label %65, label %66

65:                                               ; preds = %62
  store i32 1, ptr %14, align 4
  br label %117

66:                                               ; preds = %62
  %67 = load ptr, ptr %6, align 8
  %68 = load ptr, ptr %7, align 8
  %69 = load ptr, ptr %8, align 8
  %70 = load i32, ptr %11, align 4
  %71 = load i32, ptr %13, align 4
  %72 = call zeroext i16 @elem_tlv(ptr noundef %67, ptr noundef %68, ptr noundef %69, i8 noundef zeroext 125, i32 noundef 1, i32 noundef 34, i32 noundef %70, i32 noundef %71, ptr noundef null)
  %73 = zext i16 %72 to i32
  store i32 %73, ptr %12, align 4
  %74 = icmp ugt i32 %73, 0
  br i1 %74, label %75, label %82

75:                                               ; preds = %66
  %76 = load i32, ptr %12, align 4
  %77 = load i32, ptr %11, align 4
  %78 = add i32 %77, %76
  store i32 %78, ptr %11, align 4
  %79 = load i32, ptr %12, align 4
  %80 = load i32, ptr %13, align 4
  %81 = sub i32 %80, %79
  store i32 %81, ptr %13, align 4
  br label %82

82:                                               ; preds = %75, %66
  %83 = load i32, ptr %13, align 4
  %84 = icmp sle i32 %83, 0
  br i1 %84, label %85, label %86

85:                                               ; preds = %82
  store i32 1, ptr %14, align 4
  br label %117

86:                                               ; preds = %82
  %87 = load ptr, ptr %6, align 8
  %88 = load ptr, ptr %7, align 8
  %89 = load ptr, ptr %8, align 8
  %90 = load i32, ptr %11, align 4
  %91 = call zeroext i16 @elem_t(ptr noundef %87, ptr noundef %88, ptr noundef %89, i8 noundef zeroext -93, i32 noundef 1, i32 noundef 44, i32 noundef %90, ptr noundef null)
  %92 = zext i16 %91 to i32
  store i32 %92, ptr %12, align 4
  %93 = icmp ugt i32 %92, 0
  br i1 %93, label %94, label %101

94:                                               ; preds = %86
  %95 = load i32, ptr %12, align 4
  %96 = load i32, ptr %11, align 4
  %97 = add i32 %96, %95
  store i32 %97, ptr %11, align 4
  %98 = load i32, ptr %12, align 4
  %99 = load i32, ptr %13, align 4
  %100 = sub i32 %99, %98
  store i32 %100, ptr %13, align 4
  br label %101

101:                                              ; preds = %94, %86
  %102 = load i32, ptr %13, align 4
  %103 = icmp ugt i32 %102, 0
  br i1 %103, label %104, label %116

104:                                              ; preds = %101
  %105 = load ptr, ptr %7, align 8
  %106 = load ptr, ptr %8, align 8
  %107 = load ptr, ptr %6, align 8
  %108 = load i32, ptr %11, align 4
  %109 = load i32, ptr %13, align 4
  %110 = sub i32 %109, 0
  %111 = call ptr @proto_tree_add_expert(ptr noundef %105, ptr noundef %106, ptr noundef @ei_gsm_a_dtap_extraneous_data, ptr noundef %107, i32 noundef %108, i32 noundef %110)
  %112 = load i32, ptr %13, align 4
  %113 = sub i32 %112, 0
  %114 = load i32, ptr %11, align 4
  %115 = add i32 %114, %113
  store i32 %115, ptr %11, align 4
  br label %116

116:                                              ; preds = %104, %101
  store i32 0, ptr %14, align 4
  br label %117

117:                                              ; preds = %116, %85, %65, %45
  call void @llvm.lifetime.end.p0(i64 4, ptr %13) #7
  call void @llvm.lifetime.end.p0(i64 4, ptr %12) #7
  call void @llvm.lifetime.end.p0(i64 4, ptr %11) #7
  %118 = load i32, ptr %14, align 4
  switch i32 %118, label %120 [
    i32 0, label %119
    i32 1, label %119
  ]

119:                                              ; preds = %117, %117
  ret void

120:                                              ; preds = %117
  unreachable
}